Certificate:
    Data:
        Version: 3 (0x2)
        Serial Number: 1 (0x1)
        Signature Algorithm: sha1WithRSAEncryption
        Issuer: C=BA, ST=RS, L=Banja Luka, O=Elektrotehnicki fakultet, OU=ETF, CN=rootca/emailAddress=rootca@mail.com
        Validity
            Not Before: Sep  9 20:39:35 2024 GMT
            Not After : Sep  9 20:39:35 2025 GMT
        Subject: C=BA, ST=RS, O=Organisation, OU=Unit, CN=Tijana/emailAddress=Tijana@mail.com
        Subject Public Key Info:
            Public Key Algorithm: rsaEncryption
                Public-Key: (2048 bit)
                Modulus:
                    00:9a:42:e8:f9:07:d3:e6:6d:33:ec:84:21:c0:68:
                    b6:9d:b7:73:b0:e6:7c:85:d4:0b:6c:39:bb:7b:cd:
                    84:36:d9:31:7a:04:86:8e:2c:00:52:5a:61:3b:c3:
                    4c:fc:ef:8b:d2:20:64:3a:ab:d1:64:e6:5e:ef:77:
                    4b:9e:a5:6b:ce:d7:ec:5b:d8:73:65:cc:79:fd:51:
                    8c:f8:58:16:f9:59:9d:1e:d2:04:43:50:37:ff:1f:
                    cb:3a:78:ef:8c:be:4e:68:6b:4f:a4:3b:c1:c6:cf:
                    28:8e:d7:a1:86:6f:85:c6:92:c5:16:d5:b8:f4:0c:
                    8b:b0:e5:19:36:32:cb:98:c9:ca:28:b8:e9:8b:dd:
                    4a:a5:b9:f0:2b:28:55:95:86:d1:60:29:0a:7d:ed:
                    53:5d:29:3b:b2:23:9a:e1:28:54:fe:77:f8:bb:d9:
                    ba:7d:a0:b1:50:24:ee:fc:5a:ff:56:f1:37:9b:b1:
                    d4:e5:57:99:90:be:29:95:97:54:3e:45:04:e1:79:
                    50:13:95:d8:51:c1:09:3c:08:96:70:ab:7f:c1:a2:
                    b2:7c:5d:e5:b8:a5:4a:0e:1b:d6:42:07:94:d3:65:
                    e2:b8:18:f4:ef:b1:89:32:a8:b6:b4:46:e9:bf:5b:
                    1a:46:7c:0b:8c:d5:0c:37:58:ef:5b:67:05:f3:30:
                    74:15
                Exponent: 65537 (0x10001)
        X509v3 extensions:
            X509v3 Basic Constraints: 
                CA:FALSE
            X509v3 Key Usage: 
                Digital Signature
            X509v3 Extended Key Usage: 
                TLS Web Client Authentication, TLS Web Server Authentication
            Netscape Comment: 
                OpenSSL Generated Certificate
            X509v3 Subject Key Identifier: 
                5C:FA:12:7A:ED:96:19:2C:05:2D:B7:8C:19:86:BF:BC:D5:94:86:AF
            X509v3 Authority Key Identifier: 
                E8:07:E6:94:8A:9F:5D:27:B6:A6:57:E4:EC:D4:08:AF:95:63:48:DF
            X509v3 CRL Distribution Points: 
                Full Name:
                  URI:http://192.168.21.89/rootcrl.pem
    Signature Algorithm: sha1WithRSAEncryption
    Signature Value:
        2a:d0:64:7a:e8:84:97:2b:d2:f1:5e:af:46:44:e1:a6:ec:96:
        7c:13:04:1f:9d:97:52:38:0f:08:1a:9d:4a:7e:ee:6b:0e:d5:
        af:92:49:01:67:9b:34:35:fe:82:49:55:6e:1b:fa:e1:1e:75:
        2f:1a:3e:3c:55:67:c5:aa:eb:09:c3:5b:1f:3a:1c:3c:8a:df:
        30:80:89:2e:1f:0d:d4:8b:b1:e6:c6:30:1c:3b:98:d3:2f:57:
        8b:4b:15:17:cc:b6:d4:e5:f3:cd:30:97:77:3f:6e:8a:c1:a1:
        24:0b:0d:18:84:f3:88:5d:10:1c:6f:00:93:11:f5:1c:3a:17:
        95:4d:d1:02:7c:1a:77:5d:bd:da:d5:7b:2f:c9:24:bc:29:04:
        59:37:38:b9:23:eb:1b:76:97:5d:67:9a:ba:ab:72:37:af:3b:
        cc:b3:9a:23:6f:71:be:6a:22:a5:7c:5f:b7:e1:e0:1b:7a:89:
        20:10:9f:6b:62:1a:13:24:30:e1:d3:44:7a:ff:d0:be:fa:83:
        73:c8:ba:55:33:87:7e:f3:d0:19:80:b1:0c:ae:11:5a:0a:15:
        b3:84:84:c8:4d:10:a7:2d:4f:ba:87:51:5d:d5:b4:ec:fd:a9:
        50:94:27:31:1b:c8:b6:05:fa:13:42:ae:37:1e:b7:f4:fc:65:
        4a:03:a3:e7:ea:e8:38:97:eb:65:ac:bb:5d:32:30:35:40:88:
        69:80:b8:72:92:06:9e:55:46:58:48:66:c3:c0:54:f2:ec:cb:
        fb:35:e7:2e:4c:5c:cc:ae:a1:21:75:dd:10:ce:ca:d9:ef:61:
        6f:e2:87:8c:46:5c:a3:55:ca:da:28:3c:af:f6:0a:40:06:ec:
        75:1f:fd:f0:78:cf:73:db:69:36:fd:0d:23:d8:e1:07:93:e1:
        3b:48:52:e2:0c:1d:53:89:92:93:44:47:48:b1:e1:12:b4:63:
        6c:87:a5:53:79:a2:5f:6c:f3:73:4c:b1:b3:fc:31:1e:e8:f9:
        d5:3b:ad:4c:44:b1:fd:fc:3b:de:68:a4:60:da:ae:58:00:07:
        40:bc:df:89:10:e0:40:9f:0a:57:bf:e3:19:c6:a4:68:95:7a:
        a9:25:eb:62:d0:7a:4e:64:0d:90:49:37:68:52:9e:9c:87:fa:
        8c:61:00:2a:c4:7a:64:f0:10:b0:ea:f3:65:7e:97:d0:96:47:
        c0:3c:6f:3a:fa:1b:20:4d:ed:c1:be:d1:c5:d5:05:27:08:57:
        6b:cc:60:30:d8:0d:09:9a:3a:3f:2a:d7:41:3b:d0:54:a2:cf:
        cf:86:03:23:e7:2c:4e:38:74:25:fc:cd:75:5d:bd:17:14:be:
        45:f4:b6:4e:a6:de:c0:b5
-----BEGIN CERTIFICATE-----
MIIFWjCCA0KgAwIBAgIBATANBgkqhkiG9w0BAQUFADCBkTELMAkGA1UEBhMCQkEx
CzAJBgNVBAgTAlJTMRMwEQYDVQQHEwpCYW5qYSBMdWthMSEwHwYDVQQKExhFbGVr
dHJvdGVobmlja2kgZmFrdWx0ZXQxDDAKBgNVBAsTA0VURjEPMA0GA1UEAxMGcm9v
dGNhMR4wHAYJKoZIhvcNAQkBFg9yb290Y2FAbWFpbC5jb20wHhcNMjQwOTA5MjAz
OTM1WhcNMjUwOTA5MjAzOTM1WjBxMQswCQYDVQQGEwJCQTELMAkGA1UECAwCUlMx
FTATBgNVBAoMDE9yZ2FuaXNhdGlvbjENMAsGA1UECwwEVW5pdDEPMA0GA1UEAwwG
VGlqYW5hMR4wHAYJKoZIhvcNAQkBFg9UaWphbmFAbWFpbC5jb20wggEiMA0GCSqG
SIb3DQEBAQUAA4IBDwAwggEKAoIBAQCaQuj5B9PmbTPshCHAaLadt3Ow5nyF1Ats
Obt7zYQ22TF6BIaOLABSWmE7w0z874vSIGQ6q9Fk5l7vd0uepWvO1+xb2HNlzHn9
UYz4WBb5WZ0e0gRDUDf/H8s6eO+Mvk5oa0+kO8HGzyiO16GGb4XGksUW1bj0DIuw
5Rk2MsuYycoouOmL3UqlufArKFWVhtFgKQp97VNdKTuyI5rhKFT+d/i72bp9oLFQ
JO78Wv9W8TebsdTlV5mQvimVl1Q+RQTheVATldhRwQk8CJZwq3/BorJ8XeW4pUoO
G9ZCB5TTZeK4GPTvsYkyqLa0Rum/WxpGfAuM1Qw3WO9bZwXzMHQVAgMBAAGjgdsw
gdgwCQYDVR0TBAIwADALBgNVHQ8EBAMCB4AwHQYDVR0lBBYwFAYIKwYBBQUHAwIG
CCsGAQUFBwMBMCwGCWCGSAGG+EIBDQQfFh1PcGVuU1NMIEdlbmVyYXRlZCBDZXJ0
aWZpY2F0ZTAdBgNVHQ4EFgQUXPoSeu2WGSwFLbeMGYa/vNWUhq8wHwYDVR0jBBgw
FoAU6AfmlIqfXSe2plfk7NQIr5VjSN8wMQYDVR0fBCowKDAmoCSgIoYgaHR0cDov
LzE5Mi4xNjguMjEuODkvcm9vdGNybC5wZW0wDQYJKoZIhvcNAQEFBQADggIBACrQ
ZHrohJcr0vFer0ZE4abslnwTBB+dl1I4DwganUp+7msO1a+SSQFnmzQ1/oJJVW4b
+uEedS8aPjxVZ8Wq6wnDWx86HDyK3zCAiS4fDdSLsebGMBw7mNMvV4tLFRfMttTl
880wl3c/borBoSQLDRiE84hdEBxvAJMR9Rw6F5VN0QJ8GnddvdrVey/JJLwpBFk3
OLkj6xt2l11nmrqrcjevO8yzmiNvcb5qIqV8X7fh4Bt6iSAQn2tiGhMkMOHTRHr/
0L76g3PIulUzh37z0BmAsQyuEVoKFbOEhMhNEKctT7qHUV3VtOz9qVCUJzEbyLYF
+hNCrjcet/T8ZUoDo+fq6DiX62Wsu10yMDVAiGmAuHKSBp5VRlhIZsPAVPLsy/s1
5y5MXMyuoSF13RDOytnvYW/ih4xGXKNVytooPK/2CkAG7HUf/fB4z3PbaTb9DSPY
4QeT4TtIUuIMHVOJkpNER0ix4RK0Y2yHpVN5ol9s83NMsbP8MR7o+dU7rUxEsf38
O95opGDarlgAB0C834kQ4ECfCle/4xnGpGiVeqkl62LQek5kDZBJN2hSnpyH+oxh
ACrEemTwELDq82V+l9CWR8A8bzr6GyBN7cG+0cXVBScIV2vMYDDYDQmaOj8q10E7
0FSiz8+GAyPnLE44dCX8zXVdvRcUvkX0tk6m3sC1
-----END CERTIFICATE-----
