Certificate:
    Data:
        Version: 3 (0x2)
        Serial Number: 2 (0x2)
        Signature Algorithm: sha1WithRSAEncryption
        Issuer: C=BA, ST=RS, L=Banja Luka, O=Elektrotehnicki fakultet, OU=ETF, CN=rootca/emailAddress=rootca@mail.com
        Validity
            Not Before: Sep  9 20:55:29 2024 GMT
            Not After : Sep  9 20:55:29 2025 GMT
        Subject: C=BA, ST=RS, O=Organisation, OU=Unit, CN=Dejan/emailAddress=Dejan@mail.com
        Subject Public Key Info:
            Public Key Algorithm: rsaEncryption
                Public-Key: (2048 bit)
                Modulus:
                    00:9e:14:5f:bf:34:c6:35:ae:b2:9d:70:fe:5b:7a:
                    2d:c4:a0:06:db:7d:80:ee:fc:93:18:f8:0b:54:d8:
                    cc:7e:8e:b8:8c:a6:15:02:35:7a:79:b8:09:d5:ec:
                    df:e0:df:4d:4d:09:92:44:6f:57:ec:af:f4:8c:f9:
                    b2:6f:40:9c:2e:d9:b5:1c:31:35:49:05:01:b6:00:
                    f8:7d:b9:5c:69:a5:81:aa:61:28:0e:c8:09:33:37:
                    2f:a0:e3:85:2e:e4:38:56:24:db:75:d0:8f:1c:80:
                    4d:1e:17:dc:e5:e8:6c:7b:ba:70:ce:c3:a7:b3:42:
                    43:54:b5:12:45:cb:0e:5f:d3:42:7c:de:ff:14:5f:
                    92:fa:e3:d7:5f:2b:42:d4:08:29:56:36:ea:d6:cf:
                    d1:ac:1e:18:e7:9a:92:d5:13:e9:ec:2e:b7:37:3b:
                    1b:5a:d8:30:fa:c9:b4:cd:af:02:ad:1d:41:44:0d:
                    41:d5:2d:62:c9:40:32:7a:e2:3e:fb:5c:bc:ec:af:
                    51:41:d7:bf:2a:1a:b7:71:08:b8:c2:ca:27:1e:ad:
                    2b:a2:d3:f4:7e:a0:b4:e6:f7:f0:32:ed:c2:49:e4:
                    88:fc:1a:b0:eb:7f:dd:a4:51:41:4a:52:f0:77:e2:
                    8f:62:8f:b6:b7:72:ef:fc:92:20:88:dc:72:f2:73:
                    64:0b
                Exponent: 65537 (0x10001)
        X509v3 extensions:
            X509v3 Basic Constraints: 
                CA:FALSE
            X509v3 Key Usage: 
                Digital Signature
            X509v3 Extended Key Usage: 
                TLS Web Client Authentication, TLS Web Server Authentication
            Netscape Comment: 
                OpenSSL Generated Certificate
            X509v3 Subject Key Identifier: 
                2A:40:A0:A3:F6:3D:11:B5:91:47:F8:8D:E8:4B:9E:22:05:E8:37:EE
            X509v3 Authority Key Identifier: 
                E8:07:E6:94:8A:9F:5D:27:B6:A6:57:E4:EC:D4:08:AF:95:63:48:DF
            X509v3 CRL Distribution Points: 
                Full Name:
                  URI:http://192.168.21.89/rootcrl.pem
    Signature Algorithm: sha1WithRSAEncryption
    Signature Value:
        b9:4e:bd:55:b0:50:28:8b:76:f4:78:88:b6:46:e9:ec:dd:9d:
        53:2b:bf:78:56:bd:c4:18:7b:4b:97:93:75:a1:f6:4c:be:1d:
        d3:f6:a4:75:9c:b5:15:9c:3e:6d:60:a8:ab:cc:24:68:19:27:
        a3:a4:e6:bb:c3:cf:a0:02:af:45:b1:ed:5d:73:a3:f0:4f:59:
        8e:bb:c6:5c:e7:6c:c7:c3:d9:ce:5f:6c:42:3b:a5:6f:50:32:
        e3:d1:2c:ad:f3:82:75:07:c6:f4:ac:00:66:74:99:e8:6b:a8:
        ae:e8:e6:1f:c4:30:09:b3:a9:93:3a:2a:13:21:8b:3e:3f:60:
        ec:f8:b5:86:6a:4e:4e:20:19:f5:c8:ac:30:11:e4:ae:87:ec:
        65:0c:bc:65:20:65:c9:42:21:8a:40:40:40:36:c6:1a:f4:d3:
        ac:9c:f1:6b:75:65:63:ed:a4:ec:e9:c9:16:57:bd:ec:ca:a8:
        06:89:70:b7:3c:c6:b0:12:b7:e7:70:eb:33:ea:11:5b:14:48:
        2c:75:27:87:5e:68:74:04:0e:02:f7:c3:59:32:24:c1:7d:59:
        5d:35:46:f7:4b:d9:e2:a3:aa:82:0e:95:64:39:73:f2:e6:14:
        98:46:1f:b2:ac:42:2c:e2:f7:eb:3f:1c:b7:c6:b8:7e:11:97:
        f2:6c:a0:e8:cb:7c:5b:73:67:d7:8d:b8:16:17:23:28:28:cb:
        df:af:07:aa:92:a7:7c:0f:9f:33:6e:30:9e:1f:44:ce:9a:3c:
        8e:5e:fd:50:36:0a:59:51:5a:eb:13:fb:de:66:ef:73:62:df:
        07:2c:51:fa:5d:8f:bf:de:31:cc:99:63:e2:a4:c1:0a:a5:ac:
        bf:46:c2:41:80:0e:b7:bd:b5:b0:84:16:94:b3:c3:92:96:7a:
        d9:4c:ad:3f:c1:7b:57:6c:d2:5b:8d:93:26:fd:e5:74:8f:aa:
        36:de:15:d1:9d:f8:63:ca:6c:30:63:b3:25:69:b6:fe:a6:22:
        d1:ad:55:c7:b4:c5:61:6a:38:32:60:c6:65:31:27:44:ba:26:
        46:fb:d9:bd:77:c2:1c:a5:64:8b:aa:1e:72:00:7b:f9:f8:2a:
        d2:4d:89:c7:17:35:6d:9c:f3:1f:2b:d0:37:e6:46:34:02:1a:
        f4:dc:1a:1a:e2:e9:ad:e1:85:14:f0:20:17:f8:4c:27:3b:cb:
        f1:3c:78:f9:d3:bb:6a:f9:e0:0b:05:9e:a2:be:70:bb:30:30:
        9a:4b:62:51:4e:e7:f5:d3:d0:10:93:b6:75:ee:c7:0b:ba:91:
        f9:af:a3:67:f0:c2:f9:53:0c:1c:a3:30:6a:3a:a5:09:2f:99:
        34:36:f7:36:e6:ff:e4:22
-----BEGIN CERTIFICATE-----
MIIFWDCCA0CgAwIBAgIBAjANBgkqhkiG9w0BAQUFADCBkTELMAkGA1UEBhMCQkEx
CzAJBgNVBAgTAlJTMRMwEQYDVQQHEwpCYW5qYSBMdWthMSEwHwYDVQQKExhFbGVr
dHJvdGVobmlja2kgZmFrdWx0ZXQxDDAKBgNVBAsTA0VURjEPMA0GA1UEAxMGcm9v
dGNhMR4wHAYJKoZIhvcNAQkBFg9yb290Y2FAbWFpbC5jb20wHhcNMjQwOTA5MjA1
NTI5WhcNMjUwOTA5MjA1NTI5WjBvMQswCQYDVQQGEwJCQTELMAkGA1UECAwCUlMx
FTATBgNVBAoMDE9yZ2FuaXNhdGlvbjENMAsGA1UECwwEVW5pdDEOMAwGA1UEAwwF
RGVqYW4xHTAbBgkqhkiG9w0BCQEWDkRlamFuQG1haWwuY29tMIIBIjANBgkqhkiG
9w0BAQEFAAOCAQ8AMIIBCgKCAQEAnhRfvzTGNa6ynXD+W3otxKAG232A7vyTGPgL
VNjMfo64jKYVAjV6ebgJ1ezf4N9NTQmSRG9X7K/0jPmyb0CcLtm1HDE1SQUBtgD4
fblcaaWBqmEoDsgJMzcvoOOFLuQ4ViTbddCPHIBNHhfc5ehse7pwzsOns0JDVLUS
RcsOX9NCfN7/FF+S+uPXXytC1AgpVjbq1s/RrB4Y55qS1RPp7C63NzsbWtgw+sm0
za8CrR1BRA1B1S1iyUAyeuI++1y87K9RQde/Khq3cQi4wsonHq0rotP0fqC05vfw
Mu3CSeSI/Bqw63/dpFFBSlLwd+KPYo+2t3Lv/JIgiNxy8nNkCwIDAQABo4HbMIHY
MAkGA1UdEwQCMAAwCwYDVR0PBAQDAgeAMB0GA1UdJQQWMBQGCCsGAQUFBwMCBggr
BgEFBQcDATAsBglghkgBhvhCAQ0EHxYdT3BlblNTTCBHZW5lcmF0ZWQgQ2VydGlm
aWNhdGUwHQYDVR0OBBYEFCpAoKP2PRG1kUf4jehLniIF6DfuMB8GA1UdIwQYMBaA
FOgH5pSKn10ntqZX5OzUCK+VY0jfMDEGA1UdHwQqMCgwJqAkoCKGIGh0dHA6Ly8x
OTIuMTY4LjIxLjg5L3Jvb3RjcmwucGVtMA0GCSqGSIb3DQEBBQUAA4ICAQC5Tr1V
sFAoi3b0eIi2Runs3Z1TK794Vr3EGHtLl5N1ofZMvh3T9qR1nLUVnD5tYKirzCRo
GSejpOa7w8+gAq9Fse1dc6PwT1mOu8Zc52zHw9nOX2xCO6VvUDLj0Syt84J1B8b0
rABmdJnoa6iu6OYfxDAJs6mTOioTIYs+P2Ds+LWGak5OIBn1yKwwEeSuh+xlDLxl
IGXJQiGKQEBANsYa9NOsnPFrdWVj7aTs6ckWV73syqgGiXC3PMawErfncOsz6hFb
FEgsdSeHXmh0BA4C98NZMiTBfVldNUb3S9nio6qCDpVkOXPy5hSYRh+yrEIs4vfr
Pxy3xrh+EZfybKDoy3xbc2fXjbgWFyMoKMvfrweqkqd8D58zbjCeH0TOmjyOXv1Q
NgpZUVrrE/veZu9zYt8HLFH6XY+/3jHMmWPipMEKpay/RsJBgA63vbWwhBaUs8OS
lnrZTK0/wXtXbNJbjZMm/eV0j6o23hXRnfhjymwwY7Mlabb+piLRrVXHtMVhajgy
YMZlMSdEuiZG+9m9d8IcpWSLqh5yAHv5+CrSTYnHFzVtnPMfK9A35kY0Ahr03Boa
4umt4YUU8CAX+EwnO8vxPHj507tq+eALBZ6ivnC7MDCaS2JRTuf109AQk7Z17scL
upH5r6Nn8ML5UwwcozBqOqUJL5k0Nvc25v/kIg==
-----END CERTIFICATE-----
