Certificate:
    Data:
        Version: 3 (0x2)
        Serial Number: 3 (0x3)
        Signature Algorithm: sha1WithRSAEncryption
        Issuer: C=BA, ST=RS, L=Banja Luka, O=Elektrotehnicki fakultet, OU=ETF, CN=rootca/emailAddress=rootca@mail.com
        Validity
            Not Before: Sep 10 08:09:48 2024 GMT
            Not After : Sep 10 08:09:48 2025 GMT
        Subject: C=BA, ST=RS, O=Organisation, OU=Unit, CN=Ana/emailAddress=Ana@mail.com
        Subject Public Key Info:
            Public Key Algorithm: rsaEncryption
                Public-Key: (2048 bit)
                Modulus:
                    00:c4:a3:b2:a1:f8:48:7a:25:de:ba:7b:28:b2:08:
                    20:e2:c6:07:1b:b6:de:7b:1a:b5:94:de:58:59:3b:
                    5b:3e:09:ab:6b:d5:34:2e:ca:d9:2a:52:df:2e:b4:
                    62:f5:69:1d:34:10:f4:24:59:4d:d1:09:43:62:3f:
                    43:9e:2a:e4:8f:37:e6:ab:28:93:0e:9b:c5:34:7b:
                    c1:03:79:99:6b:93:73:60:d2:25:82:f9:00:3d:9e:
                    e1:51:4e:ec:b5:3f:c0:c1:89:64:59:cc:ff:38:86:
                    d6:7c:0f:e5:63:97:7f:8b:6c:f4:33:c2:66:22:85:
                    6e:c5:15:67:ff:6f:3d:2d:58:8d:6c:7c:e5:ac:a5:
                    6f:11:10:42:e2:03:ef:19:f2:02:47:6e:80:4b:85:
                    31:5d:14:e0:0e:ce:e6:71:7f:25:38:6b:e7:54:85:
                    68:52:64:f5:cd:fb:e1:08:18:ac:01:0c:eb:82:9c:
                    32:eb:8c:eb:d7:b9:d5:d0:41:00:d8:d3:36:56:f6:
                    6d:38:a1:c0:03:b9:a1:dd:7d:ad:9e:5d:94:af:0f:
                    99:69:c7:de:ba:6d:37:50:a1:e4:23:80:d1:39:cd:
                    45:27:66:99:c4:94:be:de:70:9c:f9:bf:99:17:31:
                    ac:23:fd:e9:81:b9:c0:ab:4c:71:da:9c:73:0d:87:
                    78:83
                Exponent: 65537 (0x10001)
        X509v3 extensions:
            X509v3 Basic Constraints: 
                CA:FALSE
            X509v3 Key Usage: 
                Digital Signature
            X509v3 Extended Key Usage: 
                TLS Web Client Authentication, TLS Web Server Authentication
            Netscape Comment: 
                OpenSSL Generated Certificate
            X509v3 Subject Key Identifier: 
                57:78:DE:23:A0:C3:C4:1A:BC:0A:3E:5D:C3:36:1C:8F:F8:BB:2A:51
            X509v3 Authority Key Identifier: 
                E8:07:E6:94:8A:9F:5D:27:B6:A6:57:E4:EC:D4:08:AF:95:63:48:DF
            X509v3 CRL Distribution Points: 
                Full Name:
                  URI:http://192.168.21.89/rootcrl.pem
    Signature Algorithm: sha1WithRSAEncryption
    Signature Value:
        a3:4f:d5:16:c4:0b:a4:33:60:df:90:54:22:3b:71:82:8e:50:
        ed:a1:98:ca:9e:5b:64:38:ed:bb:fd:44:d3:76:de:07:f1:4a:
        7b:7e:9f:70:7a:28:77:30:5b:2a:fc:a0:54:0a:7d:f9:38:b0:
        94:c9:09:10:73:7a:cf:68:2e:c0:e5:5f:bf:41:57:d1:0f:4b:
        2d:e8:e0:24:f8:9f:ae:1e:64:07:d4:5e:89:fc:af:83:73:ef:
        de:bf:ce:c1:b2:fb:58:0a:13:f5:d7:7d:85:35:71:d2:a3:f2:
        e1:f6:85:e0:f0:89:77:f7:b9:e0:60:b7:34:0d:dc:1e:f5:95:
        67:35:46:86:67:e6:a7:ac:46:76:8b:5c:6d:91:02:38:9e:cc:
        7e:1f:76:f9:e2:a5:f2:df:cd:6f:fb:b9:6f:f2:1d:0f:3f:c0:
        0e:85:01:d5:b5:16:87:e0:94:d8:1b:63:f2:ad:6c:d6:39:66:
        54:e3:ef:3a:88:89:59:3e:7d:aa:f9:71:9f:a4:5d:a9:02:d9:
        d7:b0:ee:5e:c7:da:78:e9:3a:e9:1a:c8:51:6a:c7:a7:62:54:
        c8:ce:e6:8e:76:06:6f:b5:e4:e8:98:8e:4c:62:9f:1d:b4:3e:
        c1:97:14:dc:d3:7c:eb:2e:a5:4a:18:74:64:c3:8c:70:87:56:
        35:5a:c0:c9:8e:db:e0:54:b0:8b:fc:81:46:62:d6:d6:76:e7:
        55:30:dd:9e:fa:ba:7f:fd:dd:78:be:90:e9:81:45:d7:be:e5:
        df:1b:19:79:c0:52:5b:81:d2:53:67:04:31:63:a0:08:16:d4:
        c3:70:4a:c9:22:54:75:45:2f:6b:0c:6c:d1:5f:7c:cd:23:e6:
        f6:c5:4a:13:7b:8c:00:75:8a:1c:76:42:b0:65:08:ab:ea:57:
        ef:eb:71:65:cc:18:d7:ab:9d:66:e1:f7:72:97:47:28:d5:ba:
        ab:70:11:fd:50:20:f3:11:d7:af:2f:02:1a:38:8e:38:9a:d6:
        42:85:88:bb:83:a5:2b:db:47:b4:9d:42:d5:26:c3:c6:fb:9d:
        f6:00:63:32:e8:c6:1f:eb:09:96:23:17:c4:d8:1c:04:fb:9c:
        22:4f:7b:12:64:a7:27:26:5a:01:7b:55:b4:9c:c0:8e:27:ac:
        0a:66:e2:56:3a:9d:ba:9d:b6:76:ed:71:d5:61:f4:66:f4:09:
        02:3c:ef:3f:d1:51:14:a0:f9:5d:f0:00:d6:9b:67:fa:64:7b:
        94:d4:b4:db:aa:52:93:38:b2:0f:f1:01:c5:d2:e6:71:84:95:
        3c:8b:9e:e2:e2:22:cc:4f:06:06:94:3d:f1:ae:fa:0e:85:b8:
        f4:b5:ca:9f:69:62:83:df
-----BEGIN CERTIFICATE-----
MIIFVDCCAzygAwIBAgIBAzANBgkqhkiG9w0BAQUFADCBkTELMAkGA1UEBhMCQkEx
CzAJBgNVBAgTAlJTMRMwEQYDVQQHEwpCYW5qYSBMdWthMSEwHwYDVQQKExhFbGVr
dHJvdGVobmlja2kgZmFrdWx0ZXQxDDAKBgNVBAsTA0VURjEPMA0GA1UEAxMGcm9v
dGNhMR4wHAYJKoZIhvcNAQkBFg9yb290Y2FAbWFpbC5jb20wHhcNMjQwOTEwMDgw
OTQ4WhcNMjUwOTEwMDgwOTQ4WjBrMQswCQYDVQQGEwJCQTELMAkGA1UECAwCUlMx
FTATBgNVBAoMDE9yZ2FuaXNhdGlvbjENMAsGA1UECwwEVW5pdDEMMAoGA1UEAwwD
QW5hMRswGQYJKoZIhvcNAQkBFgxBbmFAbWFpbC5jb20wggEiMA0GCSqGSIb3DQEB
AQUAA4IBDwAwggEKAoIBAQDEo7Kh+Eh6Jd66eyiyCCDixgcbtt57GrWU3lhZO1s+
Catr1TQuytkqUt8utGL1aR00EPQkWU3RCUNiP0OeKuSPN+arKJMOm8U0e8EDeZlr
k3Ng0iWC+QA9nuFRTuy1P8DBiWRZzP84htZ8D+Vjl3+LbPQzwmYihW7FFWf/bz0t
WI1sfOWspW8REELiA+8Z8gJHboBLhTFdFOAOzuZxfyU4a+dUhWhSZPXN++EIGKwB
DOuCnDLrjOvXudXQQQDY0zZW9m04ocADuaHdfa2eXZSvD5lpx966bTdQoeQjgNE5
zUUnZpnElL7ecJz5v5kXMawj/emBucCrTHHanHMNh3iDAgMBAAGjgdswgdgwCQYD
VR0TBAIwADALBgNVHQ8EBAMCB4AwHQYDVR0lBBYwFAYIKwYBBQUHAwIGCCsGAQUF
BwMBMCwGCWCGSAGG+EIBDQQfFh1PcGVuU1NMIEdlbmVyYXRlZCBDZXJ0aWZpY2F0
ZTAdBgNVHQ4EFgQUV3jeI6DDxBq8Cj5dwzYcj/i7KlEwHwYDVR0jBBgwFoAU6Afm
lIqfXSe2plfk7NQIr5VjSN8wMQYDVR0fBCowKDAmoCSgIoYgaHR0cDovLzE5Mi4x
NjguMjEuODkvcm9vdGNybC5wZW0wDQYJKoZIhvcNAQEFBQADggIBAKNP1RbEC6Qz
YN+QVCI7cYKOUO2hmMqeW2Q47bv9RNN23gfxSnt+n3B6KHcwWyr8oFQKffk4sJTJ
CRBzes9oLsDlX79BV9EPSy3o4CT4n64eZAfUXon8r4Nz796/zsGy+1gKE/XXfYU1
cdKj8uH2heDwiXf3ueBgtzQN3B71lWc1RoZn5qesRnaLXG2RAjiezH4fdvnipfLf
zW/7uW/yHQ8/wA6FAdW1FofglNgbY/KtbNY5ZlTj7zqIiVk+far5cZ+kXakC2dew
7l7H2njpOukayFFqx6diVMjO5o52Bm+15OiYjkxinx20PsGXFNzTfOsupUoYdGTD
jHCHVjVawMmO2+BUsIv8gUZi1tZ251Uw3Z76un/93Xi+kOmBRde+5d8bGXnAUluB
0lNnBDFjoAgW1MNwSskiVHVFL2sMbNFffM0j5vbFShN7jAB1ihx2QrBlCKvqV+/r
cWXMGNernWbh93KXRyjVuqtwEf1QIPMR168vAho4jjia1kKFiLuDpSvbR7SdQtUm
w8b7nfYAYzLoxh/rCZYjF8TYHAT7nCJPexJkpycmWgF7VbScwI4nrApm4lY6nbqd
tnbtcdVh9Gb0CQI87z/RURSg+V3wANabZ/pke5TUtNuqUpM4sg/xAcXS5nGElTyL
nuLiIsxPBgaUPfGu+g6FuPS1yp9pYoPf
-----END CERTIFICATE-----
